target datalayout = "e-m:e-p270:32:32-p271:32:32-p272:64:64-i64:64-i128:128-f80:128-n8:16:32:64-S128"
target triple = "x86_64-pc-linux-gnu"

%struct.aeron_pos_t = type { i32, i32 }
%struct.aeron_stream_t_stct = type { ptr, ptr, ptr, i32, ptr, i32, i32, i32, i32, i32, %struct.aeron_pos_t }
%struct.aeron_term_t_stct = type { ptr, ptr, ptr, ptr, ptr, ptr, i32 }

; Function Attrs: null_pointer_is_valid sspstrong uwtable
define internal ptr @aeron_stream_term_find(ptr noundef %0, i32 noundef %1) #0 {
  %3 = alloca ptr, align 8
  %4 = alloca i32, align 4
  %5 = alloca ptr, align 8
  store ptr %0, ptr %3, align 8
  store i32 %1, ptr %4, align 4
  call void @llvm.lifetime.start.p0(i64 8, ptr %5) #15
  %6 = load ptr, ptr %3, align 8
  %7 = getelementptr inbounds nuw %struct.aeron_stream_t_stct, ptr %6, i32 0, i32 1
  %8 = load ptr, ptr %7, align 8
  %9 = call ptr @wmem_map_lookup(ptr noundef %8, ptr noundef %4)
  store ptr %9, ptr %5, align 8
  %10 = load ptr, ptr %5, align 8
  call void @llvm.lifetime.end.p0(i64 8, ptr %5) #15
  ret ptr %10
}

; Function Attrs: null_pointer_is_valid sspstrong uwtable
define internal ptr @aeron_stream_term_add(ptr noundef %0, i32 noundef %1) #0 {
  %3 = alloca ptr, align 8
  %4 = alloca i32, align 4
  %5 = alloca ptr, align 8
  store ptr %0, ptr %3, align 8
  store i32 %1, ptr %4, align 4
  call void @llvm.lifetime.start.p0(i64 8, ptr %5) #15
  %6 = load ptr, ptr %3, align 8
  %7 = load i32, ptr %4, align 4
  %8 = call ptr @aeron_stream_term_find(ptr noundef %6, i32 noundef %7)
  store ptr %8, ptr %5, align 8
  %9 = load ptr, ptr %5, align 8
  %10 = icmp eq ptr %9, null
  br i1 %10, label %11, label %43

11:                                               ; preds = %2
  %12 = call ptr @wmem_file_scope()
  %13 = call noalias ptr @wmem_alloc0(ptr noundef %12, i64 noundef 56) #16
  store ptr %13, ptr %5, align 8
  %14 = load ptr, ptr %3, align 8
  %15 = load ptr, ptr %5, align 8
  %16 = getelementptr inbounds nuw %struct.aeron_term_t_stct, ptr %15, i32 0, i32 0
  store ptr %14, ptr %16, align 8
  %17 = call ptr @wmem_file_scope()
  %18 = call noalias ptr @wmem_map_new(ptr noundef %17, ptr noundef @aeron_uint32_hash_func, ptr noundef @aeron_uint32_compare_func)
  %19 = load ptr, ptr %5, align 8
  %20 = getelementptr inbounds nuw %struct.aeron_term_t_stct, ptr %19, i32 0, i32 1
  store ptr %18, ptr %20, align 8
  %21 = call ptr @wmem_file_scope()
  %22 = call noalias ptr @wmem_tree_new(ptr noundef %21)
  %23 = load ptr, ptr %5, align 8
  %24 = getelementptr inbounds nuw %struct.aeron_term_t_stct, ptr %23, i32 0, i32 2
  store ptr %22, ptr %24, align 8
  %25 = call ptr @wmem_file_scope()
  %26 = call noalias ptr @wmem_list_new(ptr noundef %25)
  %27 = load ptr, ptr %5, align 8
  %28 = getelementptr inbounds nuw %struct.aeron_term_t_stct, ptr %27, i32 0, i32 3
  store ptr %26, ptr %28, align 8
  %29 = call ptr @wmem_file_scope()
  %30 = call noalias ptr @wmem_list_new(ptr noundef %29)
  %31 = load ptr, ptr %5, align 8
  %32 = getelementptr inbounds nuw %struct.aeron_term_t_stct, ptr %31, i32 0, i32 5
  store ptr %30, ptr %32, align 8
  %33 = load i32, ptr %4, align 4
  %34 = load ptr, ptr %5, align 8
  %35 = getelementptr inbounds nuw %struct.aeron_term_t_stct, ptr %34, i32 0, i32 6
  store i32 %33, ptr %35, align 8
  %36 = load ptr, ptr %3, align 8
  %37 = getelementptr inbounds nuw %struct.aeron_stream_t_stct, ptr %36, i32 0, i32 1
  %38 = load ptr, ptr %37, align 8
  %39 = load ptr, ptr %5, align 8
  %40 = getelementptr inbounds nuw %struct.aeron_term_t_stct, ptr %39, i32 0, i32 6
  %41 = load ptr, ptr %5, align 8
  %42 = call ptr @wmem_map_insert(ptr noundef %38, ptr noundef %40, ptr noundef %41)
  br label %43

43:                                               ; preds = %11, %2
  %44 = load ptr, ptr %5, align 8
  call void @llvm.lifetime.end.p0(i64 8, ptr %5) #15
  ret ptr %44
}