; Function Attrs: null_pointer_is_valid sspstrong uwtable
define internal fastcc ptr @aeron_stream_term_add(ptr noundef %0, i32 noundef %1) unnamed_addr #0 {
  %3 = alloca i32, align 4
  %4 = getelementptr i8, ptr %0, i64 8
  %.val = load ptr, ptr %4, align 8
  call void @llvm.lifetime.start.p0(i64 4, ptr nonnull %3)
  store i32 %1, ptr %3, align 4
  %5 = call ptr @wmem_map_lookup(ptr noundef %.val, ptr noundef nonnull %3)
  call void @llvm.lifetime.end.p0(i64 4, ptr nonnull %3)
  %6 = icmp eq ptr %5, null
  br i1 %6, label %7, label %25

7:                                                ; preds = %2
  %8 = call ptr @wmem_file_scope()
  %9 = call noalias dereferenceable_or_null(56) ptr @wmem_alloc0(ptr noundef %8, i64 noundef 56) #13
  store ptr %0, ptr %9, align 8
  %10 = call ptr @wmem_file_scope()
  %11 = call noalias ptr @wmem_map_new(ptr noundef %10, ptr noundef nonnull @aeron_uint32_hash_func, ptr noundef nonnull @aeron_uint32_compare_func)
  %12 = getelementptr inbounds nuw i8, ptr %9, i64 8
  store ptr %11, ptr %12, align 8
  %13 = call ptr @wmem_file_scope()
  %14 = call noalias ptr @wmem_tree_new(ptr noundef %13)
  %15 = getelementptr inbounds nuw i8, ptr %9, i64 16
  store ptr %14, ptr %15, align 8
  %16 = call ptr @wmem_file_scope()
  %17 = call noalias ptr @wmem_list_new(ptr noundef %16)
  %18 = getelementptr inbounds nuw i8, ptr %9, i64 24
  store ptr %17, ptr %18, align 8
  %19 = call ptr @wmem_file_scope()
  %20 = call noalias ptr @wmem_list_new(ptr noundef %19)
  %21 = getelementptr inbounds nuw i8, ptr %9, i64 40
  store ptr %20, ptr %21, align 8
  %22 = getelementptr inbounds nuw i8, ptr %9, i64 48
  store i32 %1, ptr %22, align 8
  %23 = load ptr, ptr %4, align 8
  %24 = call ptr @wmem_map_insert(ptr noundef %23, ptr noundef nonnull %22, ptr noundef %9)
  br label %25

25:                                               ; preds = %7, %2
  %.0 = phi ptr [ %9, %7 ], [ %5, %2 ]
  ret ptr %.0
}